target datalayout = "e-m:e-p270:32:32-p271:32:32-p272:64:64-i64:64-i128:128-f80:128-n8:16:32:64-S128"
target triple = "x86_64-pc-linux-gnu"

%struct._spdu_someip_mapping = type { i32, i32, i32, i32, i32 }
%struct._GList = type { ptr, ptr, ptr }

@spdu_someip_mapping = internal global ptr null, align 8
@spdu_someip_mapping_num = internal global i32 0, align 4
@signal_pdu_handle_someip = internal global ptr null, align 8
@data_spdu_someip_mappings = internal global ptr null, align 8
@.str.292 = private unnamed_addr constant [17 x i8] c"someip.messageid\00", align 1

; Function Attrs: null_pointer_is_valid sspstrong uwtable
define internal void @register_signal_pdu_someip() #0 {
  %1 = alloca ptr, align 8
  %2 = alloca ptr, align 8
  %3 = load ptr, ptr @signal_pdu_handle_someip, align 8
  %4 = icmp eq ptr %3, null
  br i1 %4, label %5, label %6

5:                                                ; preds = %0
  br label %30

6:                                                ; preds = %0
  %7 = load ptr, ptr @signal_pdu_handle_someip, align 8
  call void @dissector_delete_all(ptr noundef @.str.292, ptr noundef %7)
  %8 = load ptr, ptr @data_spdu_someip_mappings, align 8
  %9 = icmp ne ptr %8, null
  br i1 %9, label %10, label %30

10:                                               ; preds = %6
  call void @llvm.lifetime.start.p0(i64 8, ptr %1) #14
  %11 = load ptr, ptr @data_spdu_someip_mappings, align 8
  %12 = call ptr @g_hash_table_get_keys(ptr noundef %11)
  store ptr %12, ptr %1, align 8
  call void @llvm.lifetime.start.p0(i64 8, ptr %2) #14
  %13 = load ptr, ptr %1, align 8
  store ptr %13, ptr %2, align 8
  br label %14

14:                                               ; preds = %24, %10
  %15 = load ptr, ptr %2, align 8
  %16 = icmp ne ptr %15, null
  br i1 %16, label %17, label %28

17:                                               ; preds = %14
  %18 = load ptr, ptr %2, align 8
  %19 = getelementptr inbounds nuw %struct._GList, ptr %18, i32 0, i32 0
  %20 = load ptr, ptr %19, align 8
  %21 = load i64, ptr %20, align 8
  %22 = trunc i64 %21 to i32
  %23 = load ptr, ptr @signal_pdu_handle_someip, align 8
  call void @dissector_add_uint(ptr noundef @.str.292, i32 noundef %22, ptr noundef %23)
  br label %24

24:                                               ; preds = %17
  %25 = load ptr, ptr %2, align 8
  %26 = getelementptr inbounds nuw %struct._GList, ptr %25, i32 0, i32 1
  %27 = load ptr, ptr %26, align 8
  store ptr %27, ptr %2, align 8
  br label %14, !llvm.loop !26

28:                                               ; preds = %14
  %29 = load ptr, ptr %1, align 8
  call void @g_list_free(ptr noundef %29)
  call void @llvm.lifetime.end.p0(i64 8, ptr %2) #14
  call void @llvm.lifetime.end.p0(i64 8, ptr %1) #14
  br label %30

30:                                               ; preds = %5, %28, %6
  ret void
}

; Function Attrs: nounwind null_pointer_is_valid sspstrong uwtable
define internal i64 @spdu_someip_key(i16 noundef zeroext %0, i16 noundef zeroext %1, i8 noundef zeroext %2, i8 noundef zeroext %3) #3 {
  %5 = alloca i16, align 2
  %6 = alloca i16, align 2
  %7 = alloca i8, align 1
  %8 = alloca i8, align 1
  store i16 %0, ptr %5, align 2
  store i16 %1, ptr %6, align 2
  store i8 %2, ptr %7, align 1
  store i8 %3, ptr %8, align 1
  %9 = load i16, ptr %6, align 2
  %10 = zext i16 %9 to i64
  %11 = load i16, ptr %5, align 2
  %12 = zext i16 %11 to i64
  %13 = shl i64 %12, 16
  %14 = or i64 %10, %13
  %15 = load i8, ptr %7, align 1
  %16 = zext i8 %15 to i64
  %17 = shl i64 %16, 32
  %18 = or i64 %14, %17
  %19 = load i8, ptr %8, align 1
  %20 = zext i8 %19 to i64
  %21 = shl i64 %20, 40
  %22 = or i64 %18, %21
  ret i64 %22
}

; Function Attrs: null_pointer_is_valid sspstrong uwtable
define internal void @post_update_spdu_someip_mapping_cb() #0 {
  %1 = alloca i32, align 4
  %2 = alloca ptr, align 8
  %3 = alloca i64, align 8
  %4 = alloca i64, align 8
  %5 = alloca ptr, align 8
  %6 = alloca ptr, align 8
  %7 = load ptr, ptr @data_spdu_someip_mappings, align 8
  %8 = icmp ne ptr %7, null
  br i1 %8, label %9, label %11

9:                                                ; preds = %0
  %10 = load ptr, ptr @data_spdu_someip_mappings, align 8
  call void @g_hash_table_destroy(ptr noundef %10)
  br label %11

11:                                               ; preds = %9, %0
  %12 = call ptr @g_hash_table_new_full(ptr noundef @g_int64_hash, ptr noundef @g_int64_equal, ptr noundef @g_free, ptr noundef null)
  store ptr %12, ptr @data_spdu_someip_mappings, align 8
  call void @llvm.lifetime.start.p0(i64 4, ptr %1) #14
  store i32 0, ptr %1, align 4
  br label %13

13:                                               ; preds = %85, %11
  %14 = load i32, ptr %1, align 4
  %15 = load i32, ptr @spdu_someip_mapping_num, align 4
  %16 = icmp ult i32 %14, %15
  br i1 %16, label %18, label %17

17:                                               ; preds = %13
  call void @llvm.lifetime.end.p0(i64 4, ptr %1) #14
  br label %88

18:                                               ; preds = %13
  call void @llvm.lifetime.start.p0(i64 8, ptr %2) #14
  call void @llvm.lifetime.start.p0(i64 8, ptr %3) #14
  store i64 1, ptr %3, align 8
  call void @llvm.lifetime.start.p0(i64 8, ptr %4) #14
  store i64 8, ptr %4, align 8
  call void @llvm.lifetime.start.p0(i64 8, ptr %5) #14
  %19 = load i64, ptr %4, align 8
  %20 = icmp eq i64 %19, 1
  br i1 %20, label %21, label %24

21:                                               ; preds = %18
  %22 = load i64, ptr %3, align 8
  %23 = call noalias ptr @g_malloc(i64 noundef %22) #16
  store ptr %23, ptr %5, align 8
  br label %45

24:                                               ; preds = %18
  %25 = load i64, ptr %3, align 8
  %26 = call i1 @llvm.is.constant.i64(i64 %25)
  br i1 %26, label %27, label %40

27:                                               ; preds = %24
  %28 = load i64, ptr %4, align 8
  %29 = icmp eq i64 %28, 0
  br i1 %29, label %35, label %30

30:                                               ; preds = %27
  %31 = load i64, ptr %3, align 8
  %32 = load i64, ptr %4, align 8
  %33 = udiv i64 -1, %32
  %34 = icmp ule i64 %31, %33
  br i1 %34, label %35, label %40

35:                                               ; preds = %30, %27
  %36 = load i64, ptr %3, align 8
  %37 = load i64, ptr %4, align 8
  %38 = mul i64 %36, %37
  %39 = call noalias ptr @g_malloc(i64 noundef %38) #16
  store ptr %39, ptr %5, align 8
  br label %44

40:                                               ; preds = %30, %24
  %41 = load i64, ptr %3, align 8
  %42 = load i64, ptr %4, align 8
  %43 = call noalias ptr @g_malloc_n(i64 noundef %41, i64 noundef %42) #17
  store ptr %43, ptr %5, align 8
  br label %44

44:                                               ; preds = %40, %35
  br label %45

45:                                               ; preds = %44, %21
  %46 = load ptr, ptr %5, align 8
  store ptr %46, ptr %6, align 8
  call void @llvm.lifetime.end.p0(i64 8, ptr %5) #14
  call void @llvm.lifetime.end.p0(i64 8, ptr %4) #14
  call void @llvm.lifetime.end.p0(i64 8, ptr %3) #14
  %47 = load ptr, ptr %6, align 8
  store ptr %47, ptr %2, align 8
  %48 = load ptr, ptr @spdu_someip_mapping, align 8
  %49 = load i32, ptr %1, align 4
  %50 = zext i32 %49 to i64
  %51 = getelementptr %struct._spdu_someip_mapping, ptr %48, i64 %50
  %52 = getelementptr inbounds nuw %struct._spdu_someip_mapping, ptr %51, i32 0, i32 0
  %53 = load i32, ptr %52, align 4
  %54 = trunc i32 %53 to i16
  %55 = load ptr, ptr @spdu_someip_mapping, align 8
  %56 = load i32, ptr %1, align 4
  %57 = zext i32 %56 to i64
  %58 = getelementptr %struct._spdu_someip_mapping, ptr %55, i64 %57
  %59 = getelementptr inbounds nuw %struct._spdu_someip_mapping, ptr %58, i32 0, i32 1
  %60 = load i32, ptr %59, align 4
  %61 = trunc i32 %60 to i16
  %62 = load ptr, ptr @spdu_someip_mapping, align 8
  %63 = load i32, ptr %1, align 4
  %64 = zext i32 %63 to i64
  %65 = getelementptr %struct._spdu_someip_mapping, ptr %62, i64 %64
  %66 = getelementptr inbounds nuw %struct._spdu_someip_mapping, ptr %65, i32 0, i32 2
  %67 = load i32, ptr %66, align 4
  %68 = trunc i32 %67 to i8
  %69 = load ptr, ptr @spdu_someip_mapping, align 8
  %70 = load i32, ptr %1, align 4
  %71 = zext i32 %70 to i64
  %72 = getelementptr %struct._spdu_someip_mapping, ptr %69, i64 %71
  %73 = getelementptr inbounds nuw %struct._spdu_someip_mapping, ptr %72, i32 0, i32 3
  %74 = load i32, ptr %73, align 4
  %75 = trunc i32 %74 to i8
  %76 = call i64 @spdu_someip_key(i16 noundef zeroext %54, i16 noundef zeroext %61, i8 noundef zeroext %68, i8 noundef zeroext %75)
  %77 = load ptr, ptr %2, align 8
  store i64 %76, ptr %77, align 8
  %78 = load ptr, ptr @data_spdu_someip_mappings, align 8
  %79 = load ptr, ptr %2, align 8
  %80 = load ptr, ptr @spdu_someip_mapping, align 8
  %81 = load i32, ptr %1, align 4
  %82 = zext i32 %81 to i64
  %83 = getelementptr %struct._spdu_someip_mapping, ptr %80, i64 %82
  %84 = call i32 @g_hash_table_insert(ptr noundef %78, ptr noundef %79, ptr noundef %83)
  call void @llvm.lifetime.end.p0(i64 8, ptr %2) #14
  br label %85

85:                                               ; preds = %45
  %86 = load i32, ptr %1, align 4
  %87 = add i32 %86, 1
  store i32 %87, ptr %1, align 4
  br label %13, !llvm.loop !10

88:                                               ; preds = %17
  call void @register_signal_pdu_someip()
  ret void
}