; Function Attrs: null_pointer_is_valid sspstrong uwtable
define internal void @post_update_spdu_someip_mapping_cb() #0 {
  %1 = load ptr, ptr @data_spdu_someip_mappings, align 8
  %.not = icmp eq ptr %1, null
  br i1 %.not, label %3, label %2

2:                                                ; preds = %0
  tail call void @g_hash_table_destroy(ptr noundef nonnull %1)
  br label %3

3:                                                ; preds = %2, %0
  %4 = tail call ptr @g_hash_table_new_full(ptr noundef nonnull @g_int64_hash, ptr noundef nonnull @g_int64_equal, ptr noundef nonnull @g_free, ptr noundef null)
  store ptr %4, ptr @data_spdu_someip_mappings, align 8
  %5 = load i32, ptr @spdu_someip_mapping_num, align 4
  %.not23 = icmp eq i32 %5, 0
  br i1 %.not23, label %._crit_edge, label %.lr.ph

._crit_edge:                                      ; preds = %.lr.ph, %3
  %6 = load ptr, ptr @signal_pdu_handle_someip, align 8
  %7 = icmp eq ptr %6, null
  br i1 %7, label %register_signal_pdu_someip.exit, label %8

8:                                                ; preds = %._crit_edge
  tail call void @dissector_delete_all(ptr noundef nonnull @.str.292, ptr noundef nonnull %6)
  %9 = load ptr, ptr @data_spdu_someip_mappings, align 8
  %.not.i = icmp eq ptr %9, null
  br i1 %.not.i, label %register_signal_pdu_someip.exit, label %10

10:                                               ; preds = %8
  %11 = tail call ptr @g_hash_table_get_keys(ptr noundef nonnull %9)
  %.not78.i = icmp eq ptr %11, null
  br i1 %.not78.i, label %._crit_edge.i, label %.lr.ph.i

.lr.ph.i:                                         ; preds = %10, %.lr.ph.i
  %.09.i = phi ptr [ %17, %.lr.ph.i ], [ %11, %10 ]
  %12 = load ptr, ptr %.09.i, align 8
  %13 = load i64, ptr %12, align 8
  %14 = trunc i64 %13 to i32
  %15 = load ptr, ptr @signal_pdu_handle_someip, align 8
  tail call void @dissector_add_uint(ptr noundef nonnull @.str.292, i32 noundef %14, ptr noundef %15)
  %16 = getelementptr inbounds nuw i8, ptr %.09.i, i64 8
  %17 = load ptr, ptr %16, align 8
  %.not7.i = icmp eq ptr %17, null
  br i1 %.not7.i, label %._crit_edge.i, label %.lr.ph.i, !llvm.loop !14

._crit_edge.i:                                    ; preds = %.lr.ph.i, %10
  tail call void @g_list_free(ptr noundef %11)
  br label %register_signal_pdu_someip.exit

register_signal_pdu_someip.exit:                  ; preds = %._crit_edge, %8, %._crit_edge.i
  ret void

.lr.ph:                                           ; preds = %3, %.lr.ph
  %indvars.iv = phi i64 [ %indvars.iv.next, %.lr.ph ], [ 0, %3 ]
  %18 = tail call noalias dereferenceable_or_null(8) ptr @g_malloc(i64 noundef 8) #18
  %19 = load ptr, ptr @spdu_someip_mapping, align 8
  %20 = getelementptr %struct._spdu_someip_mapping, ptr %19, i64 %indvars.iv
  %21 = load i32, ptr %20, align 4
  %22 = getelementptr inbounds nuw i8, ptr %20, i64 4
  %23 = load i32, ptr %22, align 4
  %24 = getelementptr inbounds nuw i8, ptr %20, i64 8
  %25 = load i32, ptr %24, align 4
  %26 = getelementptr inbounds nuw i8, ptr %20, i64 12
  %27 = load i32, ptr %26, align 4
  %28 = and i32 %23, 65535
  %29 = shl i32 %21, 16
  %30 = or disjoint i32 %28, %29
  %31 = zext i32 %30 to i64
  %32 = and i32 %25, 255
  %33 = zext nneg i32 %32 to i64
  %34 = shl nuw nsw i64 %33, 32
  %35 = or disjoint i64 %34, %31
  %36 = and i32 %27, 255
  %37 = zext nneg i32 %36 to i64
  %38 = shl nuw nsw i64 %37, 40
  %39 = or disjoint i64 %35, %38
  store i64 %39, ptr %18, align 8
  %40 = load ptr, ptr @data_spdu_someip_mappings, align 8
  %41 = tail call i32 @g_hash_table_insert(ptr noundef %40, ptr noundef %18, ptr noundef %20)
  %indvars.iv.next = add nuw nsw i64 %indvars.iv, 1
  %42 = load i32, ptr @spdu_someip_mapping_num, align 4
  %43 = zext i32 %42 to i64
  %44 = icmp samesign ult i64 %indvars.iv.next, %43
  br i1 %44, label %.lr.ph, label %._crit_edge, !llvm.loop !15
}